target datalayout = "e-m:e-p270:32:32-p271:32:32-p272:64:64-i64:64-i128:128-f80:128-n8:16:32:64-S128"
target triple = "x86_64-pc-linux-gnu"

%struct.ossl_quic_frame_crypto_st = type { i64, i64, ptr }

@.str.5 = private unnamed_addr constant [33 x i8] c"../openssl/test/quic_wire_test.c\00", align 1
@.str.23 = private unnamed_addr constant [9 x i8] c"fail < 0\00", align 1
@.str.32 = private unnamed_addr constant [9 x i8] c"SIZE_MAX\00", align 1
@encode_case_6_data = internal constant [5 x i8] c"]\12\11f!", align 1
@.str.53 = private unnamed_addr constant [47 x i8] c"ossl_quic_wire_decode_frame_crypto(pkt, 0, &f)\00", align 1
@.str.54 = private unnamed_addr constant [9 x i8] c"f.offset\00", align 1
@.str.55 = private unnamed_addr constant [7 x i8] c"0x1234\00", align 1
@.str.56 = private unnamed_addr constant [6 x i8] c"f.len\00", align 1
@.str.57 = private unnamed_addr constant [7 x i8] c"f.data\00", align 1
@.str.58 = private unnamed_addr constant [19 x i8] c"encode_case_6_data\00", align 1

; Function Attrs: nounwind uwtable
define internal i32 @encode_case_6_dec(ptr noundef %0, i64 noundef %1) #0 {
  %3 = alloca i32, align 4
  %4 = alloca ptr, align 8
  %5 = alloca i64, align 8
  %6 = alloca %struct.ossl_quic_frame_crypto_st, align 8
  %7 = alloca i32, align 4
  store ptr %0, ptr %4, align 8, !tbaa !40
  store i64 %1, ptr %5, align 8, !tbaa !19
  call void @llvm.lifetime.start.p0(i64 24, ptr %6) #5
  call void @llvm.memset.p0.i64(ptr align 8 %6, i8 0, i64 24, i1 false)
  %8 = load ptr, ptr %4, align 8, !tbaa !40
  %9 = call i32 @ossl_quic_wire_decode_frame_crypto(ptr noundef %8, i32 noundef 0, ptr noundef %6)
  %10 = load i64, ptr %5, align 8, !tbaa !19
  %11 = icmp slt i64 %10, 0
  %12 = zext i1 %11 to i32
  %13 = call i32 @test_int_eq(ptr noundef @.str.5, i32 noundef 264, ptr noundef @.str.53, ptr noundef @.str.23, i32 noundef %9, i32 noundef %12)
  %14 = icmp ne i32 %13, 0
  br i1 %14, label %16, label %15

15:                                               ; preds = %2
  store i32 0, ptr %3, align 4
  store i32 1, ptr %7, align 4
  br label %41

16:                                               ; preds = %2
  %17 = load i64, ptr %5, align 8, !tbaa !19
  %18 = icmp sge i64 %17, 0
  br i1 %18, label %19, label %20

19:                                               ; preds = %16
  store i32 1, ptr %3, align 4
  store i32 1, ptr %7, align 4
  br label %41

20:                                               ; preds = %16
  %21 = getelementptr inbounds nuw %struct.ossl_quic_frame_crypto_st, ptr %6, i32 0, i32 0
  %22 = load i64, ptr %21, align 8, !tbaa !54
  %23 = call i32 @test_uint64_t_eq(ptr noundef @.str.5, i32 noundef 270, ptr noundef @.str.54, ptr noundef @.str.55, i64 noundef %22, i64 noundef 4660)
  %24 = icmp ne i32 %23, 0
  br i1 %24, label %26, label %25

25:                                               ; preds = %20
  store i32 0, ptr %3, align 4
  store i32 1, ptr %7, align 4
  br label %41

26:                                               ; preds = %20
  %27 = getelementptr inbounds nuw %struct.ossl_quic_frame_crypto_st, ptr %6, i32 0, i32 1
  %28 = load i64, ptr %27, align 8, !tbaa !56
  %29 = call i32 @test_uint64_t_le(ptr noundef @.str.5, i32 noundef 273, ptr noundef @.str.56, ptr noundef @.str.32, i64 noundef %28, i64 noundef -1)
  %30 = icmp ne i32 %29, 0
  br i1 %30, label %32, label %31

31:                                               ; preds = %26
  store i32 0, ptr %3, align 4
  store i32 1, ptr %7, align 4
  br label %41

32:                                               ; preds = %26
  %33 = getelementptr inbounds nuw %struct.ossl_quic_frame_crypto_st, ptr %6, i32 0, i32 2
  %34 = load ptr, ptr %33, align 8, !tbaa !57
  %35 = getelementptr inbounds nuw %struct.ossl_quic_frame_crypto_st, ptr %6, i32 0, i32 1
  %36 = load i64, ptr %35, align 8, !tbaa !56
  %37 = call i32 @test_mem_eq(ptr noundef @.str.5, i32 noundef 277, ptr noundef @.str.57, ptr noundef @.str.58, ptr noundef %34, i64 noundef %36, ptr noundef @encode_case_6_data, i64 noundef 5)
  %38 = icmp ne i32 %37, 0
  br i1 %38, label %40, label %39

39:                                               ; preds = %32
  store i32 0, ptr %3, align 4
  store i32 1, ptr %7, align 4
  br label %41

40:                                               ; preds = %32
  store i32 1, ptr %3, align 4
  store i32 1, ptr %7, align 4
  br label %41

41:                                               ; preds = %40, %39, %31, %25, %19, %15
  call void @llvm.lifetime.end.p0(i64 24, ptr %6) #5
  %42 = load i32, ptr %3, align 4
  ret i32 %42
}