; Function Attrs: nounwind uwtable
define internal range(i32 0, 2) i32 @encode_case_6_dec(ptr noundef %0, i64 noundef %1) #0 {
  %3 = alloca %struct.ossl_quic_frame_crypto_st, align 8
  call void @llvm.lifetime.start.p0(i64 24, ptr nonnull %3) #4
  call void @llvm.memset.p0.i64(ptr noundef nonnull align 8 dereferenceable(24) %3, i8 0, i64 24, i1 false)
  %4 = call i32 @ossl_quic_wire_decode_frame_crypto(ptr noundef %0, i32 noundef 0, ptr noundef nonnull %3) #4
  %.lobit = lshr i64 %1, 63
  %5 = trunc nuw nsw i64 %.lobit to i32
  %6 = call i32 @test_int_eq(ptr noundef nonnull @.str.5, i32 noundef 264, ptr noundef nonnull @.str.53, ptr noundef nonnull @.str.23, i32 noundef %4, i32 noundef %5) #4
  %.not = icmp eq i32 %6, 0
  br i1 %.not, label %21, label %7

7:                                                ; preds = %2
  %8 = icmp sgt i64 %1, -1
  br i1 %8, label %21, label %9

9:                                                ; preds = %7
  %10 = load i64, ptr %3, align 8, !tbaa !42
  %11 = call i32 @test_uint64_t_eq(ptr noundef nonnull @.str.5, i32 noundef 270, ptr noundef nonnull @.str.54, ptr noundef nonnull @.str.55, i64 noundef %10, i64 noundef 4660) #4
  %.not3 = icmp eq i32 %11, 0
  br i1 %.not3, label %21, label %12

12:                                               ; preds = %9
  %13 = getelementptr inbounds nuw i8, ptr %3, i64 8
  %14 = load i64, ptr %13, align 8, !tbaa !44
  %15 = call i32 @test_uint64_t_le(ptr noundef nonnull @.str.5, i32 noundef 273, ptr noundef nonnull @.str.56, ptr noundef nonnull @.str.32, i64 noundef %14, i64 noundef -1) #4
  %.not4 = icmp eq i32 %15, 0
  br i1 %.not4, label %21, label %16

16:                                               ; preds = %12
  %17 = getelementptr inbounds nuw i8, ptr %3, i64 16
  %18 = load ptr, ptr %17, align 8, !tbaa !45
  %19 = load i64, ptr %13, align 8, !tbaa !44
  %20 = call i32 @test_mem_eq(ptr noundef nonnull @.str.5, i32 noundef 277, ptr noundef nonnull @.str.57, ptr noundef nonnull @.str.58, ptr noundef %18, i64 noundef %19, ptr noundef nonnull @encode_case_6_data, i64 noundef 5) #4
  %.not5 = icmp ne i32 %20, 0
  %. = zext i1 %.not5 to i32
  br label %21

21:                                               ; preds = %16, %12, %9, %7, %2
  %.0 = phi i32 [ 0, %2 ], [ 1, %7 ], [ 0, %9 ], [ 0, %12 ], [ %., %16 ]
  call void @llvm.lifetime.end.p0(i64 24, ptr nonnull %3) #4
  ret i32 %.0
}